Certificate:
    Data:
        Version: 3 (0x2)
        Serial Number: 13716739164157041797 (0xbe5ba5986c44dc85)
    Signature Algorithm: sha256WithRSAEncryption
        Issuer: C=CN, ST=Beijing, O=Huoran, OU=Software, CN=Huoran Chat/emailAddress=mxl_132412@163.com
        Validity
            Not Before: Jul 13 03:14:58 2016 GMT
            Not After : Jul 13 03:14:58 2017 GMT
        Subject: C=CN, ST=Beijing, O=Huoran, OU=Software, CN=Huoran Chat/emailAddress=mxl_132412@163.com
        Subject Public Key Info:
            Public Key Algorithm: rsaEncryption
                Public-Key: (1024 bit)
                Modulus:
                    00:b2:dc:e3:9a:a7:c9:4b:bd:39:d7:61:d6:d8:b0:
                    fa:b3:41:98:1e:cb:8f:b0:5f:a3:4f:62:f7:40:60:
                    92:e0:89:2e:e2:3a:c5:b2:ca:c2:87:73:48:d6:df:
                    cd:09:ec:e4:83:57:17:00:1f:11:45:70:bf:dc:3f:
                    b7:80:30:41:98:1c:26:e1:5f:17:dc:2b:3d:bf:de:
                    3f:2e:34:3a:6d:77:1f:12:f4:a8:fa:f7:1a:c3:cc:
                    5d:c4:fd:69:24:14:4d:0e:94:5a:91:ef:fc:b5:a0:
                    e2:c6:32:47:36:2b:bc:ff:d5:18:d8:28:33:98:df:
                    aa:e3:db:01:c6:be:48:2b:f7
                Exponent: 65537 (0x10001)
        X509v3 extensions:
            X509v3 Basic Constraints: 
                CA:FALSE
            Netscape Comment: 
                OpenSSL Generated Certificate
            X509v3 Subject Key Identifier: 
                47:49:1D:29:38:77:B4:6A:E3:2C:D6:A0:83:81:DF:EC:11:D7:66:ED
            X509v3 Authority Key Identifier: 
                keyid:D8:22:C8:A4:39:5F:23:29:00:8C:39:AE:59:AD:67:D9:0F:78:8B:B1

    Signature Algorithm: sha256WithRSAEncryption
         a8:83:65:40:ca:d1:7d:ca:0b:74:1a:03:9d:e9:60:52:3f:ac:
         2a:a3:0b:51:a1:6f:57:44:29:14:ac:f2:5a:9a:06:ba:bc:bc:
         ff:61:0e:31:9e:d6:0b:dc:0a:9e:72:0d:b7:88:b3:94:41:bc:
         8a:62:c2:4d:b1:5d:b3:b1:4c:b5:ec:50:0e:44:22:2b:0f:a6:
         32:44:22:4d:e5:92:be:d9:0d:83:02:1e:cb:89:e8:ad:33:85:
         7f:1b:55:6f:81:35:cd:f4:fe:1a:18:db:d2:45:3c:cd:60:f3:
         cf:3b:ca:58:c6:62:21:89:4c:3e:12:3d:ec:a2:d6:72:fa:c9:
         d9:a1:df:9a:18:93:6a:24:96:6c:73:ca:26:4a:4a:d3:7e:10:
         c9:5f:72:4e:36:0b:99:fc:54:16:5c:49:a3:2e:9e:64:bd:bd:
         2b:e0:39:bc:5b:72:ad:61:45:4a:6c:a1:b2:ee:39:30:70:15:
         9d:2c:b9:de:55:8e:56:fc:54:c2:f8:5f:42:9c:02:2d:3c:38:
         0b:18:df:e9:8a:b0:32:39:f4:9a:7d:af:fe:8c:0f:18:0b:8a:
         92:cd:82:50:1d:ba:7c:ce:34:b2:f5:96:7e:a9:a9:e2:5d:a2:
         16:fd:f0:37:ec:27:f5:c8:17:d3:84:2d:5b:74:39:27:36:f3:
         a5:19:75:d6
-----BEGIN CERTIFICATE-----
MIIDcjCCAlqgAwIBAgIJAL5bpZhsRNyFMA0GCSqGSIb3DQEBCwUAMHwxCzAJBgNV
BAYTAkNOMRAwDgYDVQQIDAdCZWlqaW5nMQ8wDQYDVQQKDAZIdW9yYW4xETAPBgNV
BAsMCFNvZnR3YXJlMRQwEgYDVQQDDAtIdW9yYW4gQ2hhdDEhMB8GCSqGSIb3DQEJ
ARYSbXhsXzEzMjQxMkAxNjMuY29tMB4XDTE2MDcxMzAzMTQ1OFoXDTE3MDcxMzAz
MTQ1OFowfDELMAkGA1UEBhMCQ04xEDAOBgNVBAgMB0JlaWppbmcxDzANBgNVBAoM
Bkh1b3JhbjERMA8GA1UECwwIU29mdHdhcmUxFDASBgNVBAMMC0h1b3JhbiBDaGF0
MSEwHwYJKoZIhvcNAQkBFhJteGxfMTMyNDEyQDE2My5jb20wgZ8wDQYJKoZIhvcN
AQEBBQADgY0AMIGJAoGBALLc45qnyUu9Oddh1tiw+rNBmB7Lj7Bfo09i90BgkuCJ
LuI6xbLKwodzSNbfzQns5INXFwAfEUVwv9w/t4AwQZgcJuFfF9wrPb/ePy40Om13
HxL0qPr3GsPMXcT9aSQUTQ6UWpHv/LWg4sYyRzYrvP/VGNgoM5jfquPbAca+SCv3
AgMBAAGjezB5MAkGA1UdEwQCMAAwLAYJYIZIAYb4QgENBB8WHU9wZW5TU0wgR2Vu
ZXJhdGVkIENlcnRpZmljYXRlMB0GA1UdDgQWBBRHSR0pOHe0auMs1qCDgd/sEddm
7TAfBgNVHSMEGDAWgBTYIsikOV8jKQCMOa5ZrWfZD3iLsTANBgkqhkiG9w0BAQsF
AAOCAQEAqINlQMrRfcoLdBoDnelgUj+sKqMLUaFvV0QpFKzyWpoGury8/2EOMZ7W
C9wKnnINt4izlEG8imLCTbFds7FMtexQDkQiKw+mMkQiTeWSvtkNgwIey4norTOF
fxtVb4E1zfT+Ghjb0kU8zWDzzzvKWMZiIYlMPhI97KLWcvrJ2aHfmhiTaiSWbHPK
JkpK034QyV9yTjYLmfxUFlxJoy6eZL29K+A5vFtyrWFFSmyhsu45MHAVnSy53lWO
VvxUwvhfQpwCLTw4Cxjf6YqwMjn0mn2v/owPGAuKks2CUB26fM40svWWfqmp4l2i
Fv3wN+wn9cgX04QtW3Q5JzbzpRl11g==
-----END CERTIFICATE-----
