Certificate:
    Data:
        Version: 3 (0x2)
        Serial Number: 13716739164157041796 (0xbe5ba5986c44dc84)
    Signature Algorithm: sha256WithRSAEncryption
        Issuer: C=CN, ST=Beijing, O=Huoran, OU=Software, CN=Huoran Chat/emailAddress=mxl_132412@163.com
        Validity
            Not Before: Jul 13 03:10:49 2016 GMT
            Not After : Jul 13 03:10:49 2019 GMT
        Subject: C=CN, ST=Beijing, O=Huoran, OU=Software, CN=Huoran Chat/emailAddress=mxl_132412@163.com
        Subject Public Key Info:
            Public Key Algorithm: rsaEncryption
                Public-Key: (2048 bit)
                Modulus:
                    00:d2:c4:35:f0:da:55:b7:18:14:5b:1d:7f:fd:79:
                    a8:cb:bf:b1:29:4f:f1:c0:aa:1d:84:11:48:4a:6b:
                    a3:29:f4:82:03:0a:ff:8e:4d:e0:1f:39:29:95:11:
                    40:bb:0c:34:78:2f:52:33:b6:2d:42:80:2b:bd:82:
                    ad:ca:c7:6a:d6:ce:2e:2e:dc:2a:e2:11:c1:84:b9:
                    2e:59:05:52:90:5e:bb:93:c3:68:b8:f8:3b:75:21:
                    84:23:86:ee:75:82:d8:74:59:25:29:13:c0:cb:43:
                    a5:9e:a4:2d:c7:09:96:53:ba:77:81:2b:9d:1f:70:
                    34:a1:95:b8:e6:44:a2:7d:de:0b:d8:5a:a9:b4:0f:
                    55:68:25:cd:3f:83:60:ee:d5:cd:1f:01:9e:53:24:
                    de:46:03:5d:e2:17:43:df:08:66:1a:40:29:b7:cd:
                    ac:12:92:c4:9c:78:68:56:d5:fb:c4:4a:1e:ec:8b:
                    da:70:77:55:78:97:3e:01:d5:d4:cc:a5:77:97:ee:
                    4e:e6:3f:ba:1a:ed:9f:51:f1:99:0f:ba:90:2b:73:
                    27:48:a5:c3:82:c9:44:09:30:85:aa:7a:7d:7e:95:
                    ca:7b:24:14:8c:f6:39:ff:f1:37:37:21:a6:6f:04:
                    b2:c5:29:8f:79:d6:2e:dd:5b:d3:81:8f:df:87:2b:
                    5c:af
                Exponent: 65537 (0x10001)
        X509v3 extensions:
            X509v3 Subject Key Identifier: 
                D8:22:C8:A4:39:5F:23:29:00:8C:39:AE:59:AD:67:D9:0F:78:8B:B1
            X509v3 Authority Key Identifier: 
                keyid:D8:22:C8:A4:39:5F:23:29:00:8C:39:AE:59:AD:67:D9:0F:78:8B:B1

            X509v3 Basic Constraints: 
                CA:TRUE
    Signature Algorithm: sha256WithRSAEncryption
         0a:17:4c:ee:ca:db:34:8a:8c:cc:28:ca:d1:20:5e:f8:14:e4:
         96:96:85:ad:e2:a2:e5:08:99:d1:2b:d3:60:a0:42:0c:48:f6:
         1d:b2:2a:4a:c7:97:c7:a7:09:b8:34:b0:db:db:ed:6b:8a:bb:
         a4:2f:66:bf:2c:fe:ac:0e:c6:9f:0e:eb:62:d6:bf:af:eb:e2:
         91:ee:98:06:6f:59:9d:ce:40:d4:f0:f4:a0:70:31:ee:67:20:
         dc:06:7e:3a:69:67:72:78:41:ec:d1:02:4d:19:32:d6:c9:d2:
         ff:e0:0d:88:f7:65:3b:46:35:97:1f:1f:4f:86:ca:dd:81:59:
         98:9c:79:b1:ee:43:12:60:0f:53:9a:f1:5a:90:ba:c7:14:73:
         85:3e:30:0a:88:ac:9d:ec:af:86:ff:0d:c3:77:33:12:3f:5c:
         2e:91:ad:05:47:f0:d5:8a:65:db:96:1f:34:4e:87:ba:52:11:
         ea:30:da:c4:8a:52:af:f4:8f:fb:05:5e:6c:e9:28:f8:42:65:
         63:18:d5:69:d7:18:1b:3f:88:2b:25:2d:db:8c:d0:d6:3f:41:
         24:d4:b9:23:07:83:53:55:44:5d:29:02:37:58:7f:6b:0b:cb:
         88:21:47:41:f9:2b:6c:16:4f:c5:b0:0a:05:0b:af:36:07:67:
         f7:12:eb:7f
-----BEGIN CERTIFICATE-----
MIIDyzCCArOgAwIBAgIJAL5bpZhsRNyEMA0GCSqGSIb3DQEBCwUAMHwxCzAJBgNV
BAYTAkNOMRAwDgYDVQQIDAdCZWlqaW5nMQ8wDQYDVQQKDAZIdW9yYW4xETAPBgNV
BAsMCFNvZnR3YXJlMRQwEgYDVQQDDAtIdW9yYW4gQ2hhdDEhMB8GCSqGSIb3DQEJ
ARYSbXhsXzEzMjQxMkAxNjMuY29tMB4XDTE2MDcxMzAzMTA0OVoXDTE5MDcxMzAz
MTA0OVowfDELMAkGA1UEBhMCQ04xEDAOBgNVBAgMB0JlaWppbmcxDzANBgNVBAoM
Bkh1b3JhbjERMA8GA1UECwwIU29mdHdhcmUxFDASBgNVBAMMC0h1b3JhbiBDaGF0
MSEwHwYJKoZIhvcNAQkBFhJteGxfMTMyNDEyQDE2My5jb20wggEiMA0GCSqGSIb3
DQEBAQUAA4IBDwAwggEKAoIBAQDSxDXw2lW3GBRbHX/9eajLv7EpT/HAqh2EEUhK
a6Mp9IIDCv+OTeAfOSmVEUC7DDR4L1Izti1CgCu9gq3Kx2rWzi4u3CriEcGEuS5Z
BVKQXruTw2i4+Dt1IYQjhu51gth0WSUpE8DLQ6WepC3HCZZTuneBK50fcDShlbjm
RKJ93gvYWqm0D1VoJc0/g2Du1c0fAZ5TJN5GA13iF0PfCGYaQCm3zawSksSceGhW
1fvESh7si9pwd1V4lz4B1dTMpXeX7k7mP7oa7Z9R8ZkPupArcydIpcOCyUQJMIWq
en1+lcp7JBSM9jn/8Tc3IaZvBLLFKY951i7dW9OBj9+HK1yvAgMBAAGjUDBOMB0G
A1UdDgQWBBTYIsikOV8jKQCMOa5ZrWfZD3iLsTAfBgNVHSMEGDAWgBTYIsikOV8j
KQCMOa5ZrWfZD3iLsTAMBgNVHRMEBTADAQH/MA0GCSqGSIb3DQEBCwUAA4IBAQAK
F0zuyts0iozMKMrRIF74FOSWloWt4qLlCJnRK9NgoEIMSPYdsipKx5fHpwm4NLDb
2+1rirukL2a/LP6sDsafDuti1r+v6+KR7pgGb1mdzkDU8PSgcDHuZyDcBn46aWdy
eEHs0QJNGTLWydL/4A2I92U7RjWXHx9PhsrdgVmYnHmx7kMSYA9TmvFakLrHFHOF
PjAKiKyd7K+G/w3DdzMSP1wuka0FR/DVimXblh80Toe6UhHqMNrEilKv9I/7BV5s
6Sj4QmVjGNVp1xgbP4grJS3bjNDWP0Ek1LkjB4NTVURdKQI3WH9rC8uIIUdB+Sts
Fk/FsAoFC682B2f3Eut/
-----END CERTIFICATE-----
